target datalayout = "e-m:e-p270:32:32-p271:32:32-p272:64:64-i64:64-i128:128-f80:128-n8:16:32:64-S128"
target triple = "x86_64-pc-linux-gnu"

%struct._zend_executor_globals = type { %struct._zval_struct, %struct._zval_struct, [32 x ptr], ptr, ptr, %struct._zend_array, %struct._zend_array, ptr, i32, i32, ptr, ptr, ptr, ptr, ptr, ptr, i64, ptr, ptr, i32, i32, i64, i32, i32, i32, i8, i8, %struct.zend_atomic_bool_s, %struct.zend_atomic_bool_s, ptr, i64, ptr, ptr, %struct._zend_array, %struct._zend_array, i32, i8, %struct._zval_struct, %struct._zval_struct, %struct._zend_stack, %struct._zend_stack, %struct._zend_stack, ptr, i32, i32, i64, ptr, ptr, ptr, %struct._zend_objects_store, ptr, ptr, ptr, [3 x %struct._zend_op], ptr, i8, i8, i64, i32, i32, ptr, [16 x %struct._HashTableIterator], ptr, %union._zend_function, %struct._zend_op, %struct._zend_array, i64, %struct.zend_get_gc_buffer, ptr, ptr, ptr, i64, i8, i32, ptr, ptr, i64, %struct._zend_call_stack, i64, i64, [6 x ptr] }
%struct.zend_atomic_bool_s = type { i8 }
%struct._zval_struct = type { %union._zend_value, %union.anon.0, %union.anon.3 }
%union._zend_value = type { i64 }
%union.anon.0 = type { i32 }
%union.anon.3 = type { i32 }
%struct._zend_stack = type { i32, i32, i32, ptr }
%struct._zend_objects_store = type { ptr, i32, i32, i32 }
%struct._HashTableIterator = type { ptr, i32, i32 }
%union._zend_function = type { %struct._zend_op_array }
%struct._zend_op_array = type { i8, [3 x i8], i32, ptr, ptr, ptr, i32, i32, ptr, ptr, ptr, ptr, i32, i32, i32, i32, ptr, ptr, ptr, ptr, ptr, i32, i32, ptr, ptr, ptr, i32, i32, i32, i32, ptr, ptr, [6 x ptr] }
%struct._zend_op = type { ptr, %union._znode_op, %union._znode_op, %union._znode_op, i32, i32, i8, i8, i8, i8 }
%union._znode_op = type { i32 }
%struct._zend_array = type { %struct._zend_refcounted_h, %union.anon.4, i32, %union.anon.6, i32, i32, i32, i32, i64, ptr }
%struct._zend_refcounted_h = type { i32, %union.anon }
%union.anon = type { i32 }
%union.anon.4 = type { i32 }
%union.anon.6 = type { ptr }
%struct.zend_get_gc_buffer = type { ptr, ptr, ptr }
%struct._zend_call_stack = type { ptr, i64 }
%struct._zend_object_handlers = type { i32, ptr, ptr, ptr, ptr, ptr, ptr, ptr, ptr, ptr, ptr, ptr, ptr, ptr, ptr, ptr, ptr, ptr, ptr, ptr, ptr, ptr, ptr, ptr, ptr }
%struct._xmlreader_object = type { ptr, ptr, ptr, ptr, %struct._zend_object }
%struct._zend_object = type { %struct._zend_refcounted_h, i32, ptr, ptr, ptr, [1 x %struct._zval_struct] }
%struct._zend_string = type { %struct._zend_refcounted_h, i64, i64, [1 x i8] }
%struct._zend_class_entry = type { i8, ptr, %union.anon.8, i32, i32, i32, i32, ptr, ptr, ptr, %struct._zend_array, %struct._zend_array, %struct._zend_array, ptr, ptr, ptr, ptr, ptr, ptr, ptr, ptr, ptr, ptr, ptr, ptr, ptr, ptr, ptr, ptr, ptr, ptr, ptr, %union.anon.9, ptr, ptr, ptr, ptr, i32, i32, %union.anon.10, ptr, ptr, ptr, ptr, i32, ptr, ptr, %union.anon.11 }
%union.anon.8 = type { ptr }
%union.anon.9 = type { ptr }
%union.anon.10 = type { ptr }
%union.anon.11 = type { %struct.anon.12 }
%struct.anon.12 = type { ptr, i32, i32 }
%struct._zend_execute_data = type { ptr, ptr, ptr, ptr, %struct._zval_struct, ptr, ptr, ptr, ptr }
%struct._php_libxml_node_object = type { ptr, ptr, %struct._zend_object }
%struct._php_libxml_node_ptr = type { ptr, i32, ptr }
%struct._xmlNode = type { ptr, i32, ptr, ptr, ptr, ptr, ptr, ptr, ptr, ptr, ptr, ptr, ptr, ptr, i16, i16 }

@executor_globals = external global %struct._zend_executor_globals, align 8
@.str.24 = private unnamed_addr constant [4 x i8] c"|O!\00", align 1
@dom_node_class_entry = external global ptr, align 8
@.str.25 = private unnamed_addr constant [18 x i8] c"Couldn't fetch %s\00", align 1
@.str.26 = private unnamed_addr constant [34 x i8] c"An Error Occurred while expanding\00", align 1
@.str.27 = private unnamed_addr constant [29 x i8] c"Cannot expand this node type\00", align 1
@.str.28 = private unnamed_addr constant [37 x i8] c"Data must be loaded before expanding\00", align 1

; Function Attrs: nounwind uwtable
define internal ptr @php_xmlreader_fetch_object(ptr noundef %0) #0 {
  %2 = alloca ptr, align 8
  store ptr %0, ptr %2, align 8
  %3 = load ptr, ptr %2, align 8
  %4 = getelementptr inbounds i8, ptr %3, i64 -32
  ret ptr %4
}

; Function Attrs: nounwind uwtable
define internal ptr @php_libxml_node_fetch_object(ptr noundef %0) #0 {
  %2 = alloca ptr, align 8
  store ptr %0, ptr %2, align 8
  %3 = load ptr, ptr %2, align 8
  %4 = load ptr, ptr %2, align 8
  %5 = getelementptr inbounds %struct._zend_object, ptr %4, i32 0, i32 3
  %6 = load ptr, ptr %5, align 8
  %7 = getelementptr inbounds %struct._zend_object_handlers, ptr %6, i32 0, i32 0
  %8 = load i32, ptr %7, align 8
  %9 = sext i32 %8 to i64
  %10 = sub i64 0, %9
  %11 = getelementptr inbounds i8, ptr %3, i64 %10
  ret ptr %11
}

; Function Attrs: nounwind uwtable
define hidden void @zim_XMLReader_expand(ptr noundef %0, ptr noundef %1) #0 {
  %3 = alloca ptr, align 8
  %4 = alloca ptr, align 8
  %5 = alloca ptr, align 8
  %6 = alloca ptr, align 8
  %7 = alloca i32, align 4
  %8 = alloca ptr, align 8
  %9 = alloca ptr, align 8
  %10 = alloca ptr, align 8
  %11 = alloca ptr, align 8
  %12 = alloca ptr, align 8
  store ptr %0, ptr %3, align 8
  store ptr %1, ptr %4, align 8
  store ptr null, ptr %6, align 8
  store ptr null, ptr %11, align 8
  store ptr null, ptr %12, align 8
  %13 = load ptr, ptr %3, align 8
  %14 = getelementptr inbounds %struct._zend_execute_data, ptr %13, i32 0, i32 4
  store ptr %14, ptr %5, align 8
  %15 = load ptr, ptr %3, align 8
  %16 = getelementptr inbounds %struct._zend_execute_data, ptr %15, i32 0, i32 4
  %17 = getelementptr inbounds %struct._zval_struct, ptr %16, i32 0, i32 2
  %18 = load i32, ptr %17, align 4
  %19 = load ptr, ptr @dom_node_class_entry, align 8
  %20 = call i32 (i32, ptr, ...) @zend_parse_parameters(i32 noundef %18, ptr noundef @.str.24, ptr noundef %6, ptr noundef %19)
  %21 = icmp eq i32 %20, -1
  br i1 %21, label %22, label %27

22:                                               ; preds = %2
  br label %23

23:                                               ; preds = %22
  %24 = load ptr, ptr getelementptr inbounds (%struct._zend_executor_globals, ptr @executor_globals, i32 0, i32 50), align 8
  %25 = icmp ne ptr %24, null
  call void @llvm.assume(i1 %25)
  br label %117

26:                                               ; No predecessors!
  br label %27

27:                                               ; preds = %26, %2
  %28 = load ptr, ptr %6, align 8
  %29 = icmp ne ptr %28, null
  br i1 %29, label %30, label %68

30:                                               ; preds = %27
  %31 = load ptr, ptr %6, align 8
  %32 = getelementptr inbounds %struct._zval_struct, ptr %31, i32 0, i32 0
  %33 = load ptr, ptr %32, align 8
  %34 = call ptr @php_libxml_node_fetch_object(ptr noundef %33)
  store ptr %34, ptr %12, align 8
  %35 = load ptr, ptr %12, align 8
  %36 = getelementptr inbounds %struct._php_libxml_node_object, ptr %35, i32 0, i32 0
  %37 = load ptr, ptr %36, align 8
  %38 = icmp eq ptr %37, null
  %39 = xor i1 %38, true
  %40 = xor i1 %39, true
  %41 = zext i1 %40 to i32
  %42 = sext i32 %41 to i64
  %43 = icmp ne i64 %42, 0
  br i1 %43, label %44, label %59

44:                                               ; preds = %30
  %45 = load ptr, ptr %12, align 8
  %46 = getelementptr inbounds %struct._php_libxml_node_object, ptr %45, i32 0, i32 2
  %47 = getelementptr inbounds %struct._zend_object, ptr %46, i32 0, i32 2
  %48 = load ptr, ptr %47, align 8
  %49 = getelementptr inbounds %struct._zend_class_entry, ptr %48, i32 0, i32 1
  %50 = load ptr, ptr %49, align 8
  %51 = getelementptr inbounds %struct._zend_string, ptr %50, i32 0, i32 3
  %52 = getelementptr inbounds [1 x i8], ptr %51, i64 0, i64 0
  call void (ptr, i32, ptr, ...) @php_error_docref(ptr noundef null, i32 noundef 2, ptr noundef @.str.25, ptr noundef %52)
  br label %53

53:                                               ; preds = %44
  br label %54

54:                                               ; preds = %53
  %55 = load ptr, ptr %4, align 8
  %56 = getelementptr inbounds %struct._zval_struct, ptr %55, i32 0, i32 1
  store i32 1, ptr %56, align 8
  br label %57

57:                                               ; preds = %54
  br label %117

58:                                               ; No predecessors!
  br label %59

59:                                               ; preds = %58, %30
  %60 = load ptr, ptr %12, align 8
  %61 = getelementptr inbounds %struct._php_libxml_node_object, ptr %60, i32 0, i32 0
  %62 = load ptr, ptr %61, align 8
  %63 = getelementptr inbounds %struct._php_libxml_node_ptr, ptr %62, i32 0, i32 0
  %64 = load ptr, ptr %63, align 8
  store ptr %64, ptr %9, align 8
  %65 = load ptr, ptr %9, align 8
  %66 = getelementptr inbounds %struct._xmlNode, ptr %65, i32 0, i32 8
  %67 = load ptr, ptr %66, align 8
  store ptr %67, ptr %11, align 8
  br label %68

68:                                               ; preds = %59, %27
  %69 = load ptr, ptr %5, align 8
  %70 = getelementptr inbounds %struct._zval_struct, ptr %69, i32 0, i32 0
  %71 = load ptr, ptr %70, align 8
  %72 = call ptr @php_xmlreader_fetch_object(ptr noundef %71)
  store ptr %72, ptr %8, align 8
  %73 = load ptr, ptr %8, align 8
  %74 = getelementptr inbounds %struct._xmlreader_object, ptr %73, i32 0, i32 0
  %75 = load ptr, ptr %74, align 8
  %76 = icmp ne ptr %75, null
  br i1 %76, label %77, label %112

77:                                               ; preds = %68
  %78 = load ptr, ptr %8, align 8
  %79 = getelementptr inbounds %struct._xmlreader_object, ptr %78, i32 0, i32 0
  %80 = load ptr, ptr %79, align 8
  %81 = call ptr @xmlTextReaderExpand(ptr noundef %80)
  store ptr %81, ptr %9, align 8
  %82 = load ptr, ptr %9, align 8
  %83 = icmp eq ptr %82, null
  br i1 %83, label %84, label %91

84:                                               ; preds = %77
  call void (ptr, i32, ptr, ...) @php_error_docref(ptr noundef null, i32 noundef 2, ptr noundef @.str.26)
  br label %85

85:                                               ; preds = %84
  br label %86

86:                                               ; preds = %85
  %87 = load ptr, ptr %4, align 8
  %88 = getelementptr inbounds %struct._zval_struct, ptr %87, i32 0, i32 1
  store i32 2, ptr %88, align 8
  br label %89

89:                                               ; preds = %86
  br label %117

90:                                               ; No predecessors!
  br label %111

91:                                               ; preds = %77
  %92 = load ptr, ptr %9, align 8
  %93 = load ptr, ptr %11, align 8
  %94 = call ptr @xmlDocCopyNode(ptr noundef %92, ptr noundef %93, i32 noundef 1)
  store ptr %94, ptr %10, align 8
  %95 = load ptr, ptr %10, align 8
  %96 = icmp eq ptr %95, null
  br i1 %96, label %97, label %104

97:                                               ; preds = %91
  call void (ptr, i32, ptr, ...) @php_error_docref(ptr noundef null, i32 noundef 8, ptr noundef @.str.27)
  br label %98

98:                                               ; preds = %97
  br label %99

99:                                               ; preds = %98
  %100 = load ptr, ptr %4, align 8
  %101 = getelementptr inbounds %struct._zval_struct, ptr %100, i32 0, i32 1
  store i32 2, ptr %101, align 8
  br label %102

102:                                              ; preds = %99
  br label %117

103:                                              ; No predecessors!
  br label %110

104:                                              ; preds = %91
  %105 = load ptr, ptr %10, align 8
  %106 = load ptr, ptr %4, align 8
  %107 = load ptr, ptr %12, align 8
  %108 = call zeroext i1 @php_dom_create_object(ptr noundef %105, ptr noundef %106, ptr noundef %107)
  %109 = zext i1 %108 to i32
  store i32 %109, ptr %7, align 4
  br label %110

110:                                              ; preds = %104, %103
  br label %111

111:                                              ; preds = %110, %90
  br label %117

112:                                              ; preds = %68
  call void (ptr, ptr, ...) @zend_throw_error(ptr noundef null, ptr noundef @.str.28)
  br label %113

113:                                              ; preds = %112
  %114 = load ptr, ptr getelementptr inbounds (%struct._zend_executor_globals, ptr @executor_globals, i32 0, i32 50), align 8
  %115 = icmp ne ptr %114, null
  call void @llvm.assume(i1 %115)
  br label %117

116:                                              ; No predecessors!
  br label %117

117:                                              ; preds = %116, %113, %111, %102, %89, %57, %23
  ret void
}