; Function Attrs: nounwind uwtable
define hidden void @zim_XMLReader_expand(ptr nocapture noundef readonly %0, ptr noundef %1) #0 {
  %3 = alloca ptr, align 8
  store ptr null, ptr %3, align 8
  %4 = getelementptr inbounds i8, ptr %0, i64 32
  %5 = getelementptr inbounds i8, ptr %0, i64 44
  %6 = load i32, ptr %5, align 4
  %7 = load ptr, ptr @dom_node_class_entry, align 8
  %8 = call i32 (i32, ptr, ...) @zend_parse_parameters(i32 noundef %6, ptr noundef nonnull @.str.24, ptr noundef nonnull %3, ptr noundef %7) #11
  %9 = icmp eq i32 %8, -1
  br i1 %9, label %10, label %13

10:                                               ; preds = %2
  %11 = load ptr, ptr getelementptr inbounds (%struct._zend_executor_globals, ptr @executor_globals, i64 0, i32 50), align 8
  %12 = icmp ne ptr %11, null
  call void @llvm.assume(i1 %12)
  br label %55

13:                                               ; preds = %2
  %14 = load ptr, ptr %3, align 8
  %.not = icmp eq ptr %14, null
  br i1 %.not, label %36, label %15

15:                                               ; preds = %13
  %16 = load ptr, ptr %14, align 8
  %17 = getelementptr inbounds i8, ptr %16, i64 24
  %18 = load ptr, ptr %17, align 8
  %19 = load i32, ptr %18, align 8
  %20 = sext i32 %19 to i64
  %21 = sub nsw i64 0, %20
  %22 = getelementptr inbounds i8, ptr %16, i64 %21
  %23 = load ptr, ptr %22, align 8
  %24 = icmp eq ptr %23, null
  br i1 %24, label %25, label %32

25:                                               ; preds = %15
  %26 = getelementptr inbounds i8, ptr %22, i64 32
  %27 = load ptr, ptr %26, align 8
  %28 = getelementptr inbounds i8, ptr %27, i64 8
  %29 = load ptr, ptr %28, align 8
  %30 = getelementptr inbounds i8, ptr %29, i64 24
  call void (ptr, i32, ptr, ...) @php_error_docref(ptr noundef null, i32 noundef 2, ptr noundef nonnull @.str.25, ptr noundef nonnull %30) #11
  %31 = getelementptr inbounds i8, ptr %1, i64 8
  store i32 1, ptr %31, align 8
  br label %55

32:                                               ; preds = %15
  %33 = load ptr, ptr %23, align 8
  %34 = getelementptr inbounds i8, ptr %33, i64 64
  %35 = load ptr, ptr %34, align 8
  br label %36

36:                                               ; preds = %32, %13
  %.019 = phi ptr [ %35, %32 ], [ null, %13 ]
  %.0 = phi ptr [ %22, %32 ], [ null, %13 ]
  %37 = load ptr, ptr %4, align 8
  %38 = getelementptr inbounds i8, ptr %37, i64 -32
  %39 = load ptr, ptr %38, align 8
  %.not25 = icmp eq ptr %39, null
  br i1 %.not25, label %52, label %40

40:                                               ; preds = %36
  %41 = call ptr @xmlTextReaderExpand(ptr noundef nonnull %39) #11
  %42 = icmp eq ptr %41, null
  br i1 %42, label %43, label %45

43:                                               ; preds = %40
  call void (ptr, i32, ptr, ...) @php_error_docref(ptr noundef null, i32 noundef 2, ptr noundef nonnull @.str.26) #11
  %44 = getelementptr inbounds i8, ptr %1, i64 8
  store i32 2, ptr %44, align 8
  br label %55

45:                                               ; preds = %40
  %46 = call ptr @xmlDocCopyNode(ptr noundef nonnull %41, ptr noundef %.019, i32 noundef 1) #11
  %47 = icmp eq ptr %46, null
  br i1 %47, label %48, label %50

48:                                               ; preds = %45
  call void (ptr, i32, ptr, ...) @php_error_docref(ptr noundef null, i32 noundef 8, ptr noundef nonnull @.str.27) #11
  %49 = getelementptr inbounds i8, ptr %1, i64 8
  store i32 2, ptr %49, align 8
  br label %55

50:                                               ; preds = %45
  %51 = call zeroext i1 @php_dom_create_object(ptr noundef nonnull %46, ptr noundef %1, ptr noundef %.0) #11
  br label %55

52:                                               ; preds = %36
  call void (ptr, ptr, ...) @zend_throw_error(ptr noundef null, ptr noundef nonnull @.str.28) #11
  %53 = load ptr, ptr getelementptr inbounds (%struct._zend_executor_globals, ptr @executor_globals, i64 0, i32 50), align 8
  %54 = icmp ne ptr %53, null
  call void @llvm.assume(i1 %54)
  br label %55

55:                                               ; preds = %52, %50, %48, %43, %25, %10
  ret void
}